; Function Attrs: nounwind uwtable
define hidden ptr @lexbor_bst_entry_make(ptr nocapture noundef %0, i64 noundef %1) local_unnamed_addr #0 {
  %3 = load ptr, ptr %0, align 8
  %4 = tail call ptr @lexbor_dobject_calloc(ptr noundef %3) #5
  %5 = icmp eq ptr %4, null
  br i1 %5, label %11, label %6

6:                                                ; preds = %2
  %7 = getelementptr inbounds i8, ptr %4, i64 40
  store i64 %1, ptr %7, align 8
  %8 = getelementptr inbounds i8, ptr %0, i64 16
  %9 = load i64, ptr %8, align 8
  %10 = add i64 %9, 1
  store i64 %10, ptr %8, align 8
  br label %11

11:                                               ; preds = %2, %6
  ret ptr %4
}